; Function Attrs: nounwind uwtable
define internal fastcc ptr @parseBracket(ptr noundef nonnull captures(none) %0, ptr noundef nonnull captures(address_is_null) %1, i32 noundef range(i32 91, 124) %2, i32 noundef range(i32 93, 126) %3) unnamed_addr #0 {
  br label %gv_isspace.exit.i

gv_isspace.exit.i:                                ; preds = %gv_isspace.exit.i.backedge, %4
  %5 = tail call fastcc i32 @readc(ptr noundef nonnull %0, ptr noundef null)
  switch i32 %5, label %skipWS.exit [
    i32 9, label %gv_isspace.exit.i.backedge
    i32 10, label %gv_isspace.exit.i.backedge
    i32 11, label %gv_isspace.exit.i.backedge
    i32 12, label %gv_isspace.exit.i.backedge
    i32 13, label %gv_isspace.exit.i.backedge
    i32 32, label %gv_isspace.exit.i.backedge
  ]

gv_isspace.exit.i.backedge:                       ; preds = %gv_isspace.exit.i, %gv_isspace.exit.i, %gv_isspace.exit.i, %gv_isspace.exit.i, %gv_isspace.exit.i, %gv_isspace.exit.i
  br label %gv_isspace.exit.i

skipWS.exit:                                      ; preds = %gv_isspace.exit.i
  %6 = icmp slt i32 %5, 0
  br i1 %6, label %unreadc.exit, label %7

7:                                                ; preds = %skipWS.exit
  %.not = icmp eq i32 %5, %2
  br i1 %.not, label %14, label %8

8:                                                ; preds = %7
  %9 = tail call i32 @ungetc(i32 noundef range(i32 0, -2147483648) %5, ptr noundef nonnull %0)
  %10 = icmp eq i32 %5, 10
  br i1 %10, label %11, label %unreadc.exit

11:                                               ; preds = %8
  %12 = load i32, ptr @lineno, align 4, !tbaa !3
  %13 = add nsw i32 %12, -1
  store i32 %13, ptr @lineno, align 4, !tbaa !3
  br label %unreadc.exit

14:                                               ; preds = %7
  %15 = load i32, ptr @lineno, align 4, !tbaa !3
  store i32 %15, ptr @startLine, align 4, !tbaa !3
  %16 = trunc nuw nsw i32 %2 to i8
  %17 = trunc nuw nsw i32 %3 to i8
  %18 = tail call fastcc i32 @endBracket(ptr noundef %0, ptr noundef %1, i8 noundef signext %16, i8 noundef signext %17)
  %19 = icmp slt i32 %18, 0
  br i1 %19, label %20, label %24

20:                                               ; preds = %14
  %21 = tail call i32 @getErrorErrors() #16
  %.not16 = icmp eq i32 %21, 0
  br i1 %.not16, label %22, label %unreadc.exit

22:                                               ; preds = %20
  %23 = load i32, ptr @startLine, align 4, !tbaa !3
  tail call void (i32, ptr, ...) @error(i32 noundef 2, ptr noundef nonnull @.str.16, i32 noundef %2, i32 noundef %3, i32 noundef %23) #16
  br label %unreadc.exit

24:                                               ; preds = %14
  %25 = getelementptr i8, ptr %1, i64 31
  %.val.i = load i8, ptr %25, align 1, !tbaa !13
  %.not.i = icmp eq i8 %.val.i, -1
  br i1 %.not.i, label %33, label %agxblen.exit.i

agxblen.exit.i:                                   ; preds = %24
  %26 = zext i8 %.val.i to i64
  %27 = tail call noalias ptr @strndup(ptr noundef nonnull readonly %1, i64 noundef %26) #16
  %28 = icmp eq ptr %27, null
  br i1 %28, label %29, label %agxbdisown.exit

29:                                               ; preds = %agxblen.exit.i
  %30 = load ptr, ptr @stderr, align 8, !tbaa !17
  %31 = add nuw nsw i64 %26, 1
  %32 = tail call i32 (ptr, ptr, ...) @fprintf(ptr noundef %30, ptr noundef nonnull @.str.15, i64 noundef %31) #19
  tail call fastcc void @graphviz_exit() #20
  unreachable

33:                                               ; preds = %24
  tail call fastcc void @agxbputc(ptr noundef nonnull %1, i8 noundef signext 0)
  %34 = load ptr, ptr %1, align 8, !tbaa !13
  br label %agxbdisown.exit

agxbdisown.exit:                                  ; preds = %agxblen.exit.i, %33
  %.0.i = phi ptr [ %34, %33 ], [ %27, %agxblen.exit.i ]
  tail call void @llvm.memset.p0.i64(ptr noundef nonnull align 8 dereferenceable(32) %1, i8 0, i64 32, i1 false)
  br label %unreadc.exit

unreadc.exit:                                     ; preds = %11, %8, %20, %22, %skipWS.exit, %agxbdisown.exit
  %.0 = phi ptr [ %.0.i, %agxbdisown.exit ], [ null, %skipWS.exit ], [ null, %22 ], [ null, %20 ], [ null, %8 ], [ null, %11 ]
  ret ptr %.0
}